
build_segre/beq.o:     file format elf32-littleriscv


Disassembly of section .text:

00008000 <_start>:
    8000:	00000013          	nop
    8004:	00000093          	li	ra,0
    8008:	00100113          	li	sp,1
    800c:	00100193          	li	gp,1
    8010:	00200213          	li	tp,2
    8014:	00200293          	li	t0,2
    8018:	00300313          	li	t1,3
    801c:	00300393          	li	t2,3
    8020:	00400413          	li	s0,4
    8024:	00400493          	li	s1,4
    8028:	fff00513          	li	a0,-1
    802c:	fff00593          	li	a1,-1
    8030:	ffe00613          	li	a2,-2
    8034:	ffe00693          	li	a3,-2
    8038:	ffd00713          	li	a4,-3
    803c:	ffd00793          	li	a5,-3
    8040:	ffc00813          	li	a6,-4
    8044:	ffc00893          	li	a7,-4
    8048:	ffb00913          	li	s2,-5
    804c:	ffb00993          	li	s3,-5
    8050:	f0000a37          	lui	s4,0xf0000
    8054:	e0000ab7          	lui	s5,0xe0000
    8058:	d0000b37          	lui	s6,0xd0000
    805c:	c0000bb7          	lui	s7,0xc0000
    8060:	b0000c37          	lui	s8,0xb0000
    8064:	a0000cb7          	lui	s9,0xa0000
    8068:	90000d37          	lui	s10,0x90000
    806c:	80000db7          	lui	s11,0x80000
    8070:	70000e37          	lui	t3,0x70000
    8074:	60000eb7          	lui	t4,0x60000
    8078:	50000f37          	lui	t5,0x50000
    807c:	00000f93          	li	t6,0
    8080:	00100663          	beq	zero,ra,808c <b1>
    8084:	fff00093          	li	ra,-1
    8088:	fff01073          	csrw	0xfff,zero

0000808c <b1>:
    808c:	0be00093          	li	ra,190
    8090:	00310863          	beq	sp,gp,80a0 <b2>
    8094:	fff00113          	li	sp,-1
    8098:	fff00193          	li	gp,-1
    809c:	fff01073          	csrw	0xfff,zero

000080a0 <b2>:
    80a0:	0be00113          	li	sp,190
    80a4:	0be00193          	li	gp,190
    80a8:	00520863          	beq	tp,t0,80b8 <b3>
    80ac:	fff00213          	li	tp,-1
    80b0:	fff00293          	li	t0,-1
    80b4:	fff01073          	csrw	0xfff,zero

000080b8 <b3>:
    80b8:	0be00213          	li	tp,190
    80bc:	0be00293          	li	t0,190
    80c0:	00730863          	beq	t1,t2,80d0 <b4>
    80c4:	fff00313          	li	t1,-1
    80c8:	fff00393          	li	t2,-1
    80cc:	fff01073          	csrw	0xfff,zero

000080d0 <b4>:
    80d0:	0be00313          	li	t1,190
    80d4:	0be00393          	li	t2,190
    80d8:	00940863          	beq	s0,s1,80e8 <b5>
    80dc:	fff00413          	li	s0,-1
    80e0:	fff00493          	li	s1,-1
    80e4:	fff01073          	csrw	0xfff,zero

000080e8 <b5>:
    80e8:	0be00413          	li	s0,190
    80ec:	0be00493          	li	s1,190
    80f0:	00b50863          	beq	a0,a1,8100 <b6>
    80f4:	fff00513          	li	a0,-1
    80f8:	fff00593          	li	a1,-1
    80fc:	fff01073          	csrw	0xfff,zero

00008100 <b6>:
    8100:	0be00513          	li	a0,190
    8104:	0be00593          	li	a1,190
    8108:	00d60863          	beq	a2,a3,8118 <b7>
    810c:	fff00613          	li	a2,-1
    8110:	fff00693          	li	a3,-1
    8114:	fff01073          	csrw	0xfff,zero

00008118 <b7>:
    8118:	0be00613          	li	a2,190
    811c:	0be00693          	li	a3,190
    8120:	00f70863          	beq	a4,a5,8130 <b8>
    8124:	fff00713          	li	a4,-1
    8128:	fff00793          	li	a5,-1
    812c:	fff01073          	csrw	0xfff,zero

00008130 <b8>:
    8130:	0be00713          	li	a4,190
    8134:	0be00793          	li	a5,190
    8138:	01180863          	beq	a6,a7,8148 <b9>
    813c:	fff00813          	li	a6,-1
    8140:	fff00893          	li	a7,-1
    8144:	fff01073          	csrw	0xfff,zero

00008148 <b9>:
    8148:	0be00813          	li	a6,190
    814c:	0be00893          	li	a7,190
    8150:	01390863          	beq	s2,s3,8160 <b10>
    8154:	fff00913          	li	s2,-1
    8158:	fff00993          	li	s3,-1
    815c:	fff01073          	csrw	0xfff,zero

00008160 <b10>:
    8160:	0be00913          	li	s2,190
    8164:	0be00993          	li	s3,190
    8168:	075a0463          	beq	s4,s5,81d0 <test_done>
    816c:	0be00a13          	li	s4,190
    8170:	0be00a93          	li	s5,190
    8174:	057b0e63          	beq	s6,s7,81d0 <test_done>
    8178:	0be00b13          	li	s6,190
    817c:	0be00b93          	li	s7,190
    8180:	059c0863          	beq	s8,s9,81d0 <test_done>
    8184:	0be00c13          	li	s8,190
    8188:	0be00c93          	li	s9,190
    818c:	05bd0263          	beq	s10,s11,81d0 <test_done>
    8190:	0be00d13          	li	s10,190
    8194:	0be00d93          	li	s11,190
    8198:	03de0c63          	beq	t3,t4,81d0 <test_done>
    819c:	0be00e13          	li	t3,190
    81a0:	0be00e93          	li	t4,190
    81a4:	03ff0663          	beq	t5,t6,81d0 <test_done>
    81a8:	0be00f13          	li	t5,190
    81ac:	0be00f93          	li	t6,190
    81b0:	00000013          	nop
    81b4:	00000013          	nop
    81b8:	00000013          	nop
    81bc:	00000013          	nop
    81c0:	00000013          	nop
    81c4:	00000013          	nop
    81c8:	00000013          	nop
    81cc:	00000013          	nop

000081d0 <test_done>:
    81d0:	fff01073          	csrw	0xfff,zero
