
build_segre/bge.o:     file format elf32-littleriscv


Disassembly of section .text:

00000000 <_start>:
   0:	00000013          	nop
   4:	00000093          	li	ra,0
   8:	00300113          	li	sp,3
   c:	00200193          	li	gp,2
  10:	00200213          	li	tp,2
  14:	00200293          	li	t0,2
  18:	00400313          	li	t1,4
  1c:	00300393          	li	t2,3
  20:	00400413          	li	s0,4
  24:	00400493          	li	s1,4
  28:	fff00513          	li	a0,-1
  2c:	fff00593          	li	a1,-1
  30:	fff00613          	li	a2,-1
  34:	ffe00693          	li	a3,-2
  38:	ffd00713          	li	a4,-3
  3c:	ffd00793          	li	a5,-3
  40:	ffd00813          	li	a6,-3
  44:	ffc00893          	li	a7,-4
  48:	ffb00913          	li	s2,-5
  4c:	ffb00993          	li	s3,-5
  50:	50000a37          	lui	s4,0x50000
  54:	60000ab7          	lui	s5,0x60000
  58:	50000b37          	lui	s6,0x50000
  5c:	60000bb7          	lui	s7,0x60000
  60:	90000c37          	lui	s8,0x90000
  64:	a0000cb7          	lui	s9,0xa0000
  68:	b0000d37          	lui	s10,0xb0000
  6c:	c0000db7          	lui	s11,0xc0000
  70:	d0000e37          	lui	t3,0xd0000
  74:	e0000eb7          	lui	t4,0xe0000
  78:	f0000f37          	lui	t5,0xf0000
  7c:	00000f93          	li	t6,0
  80:	00105663          	blez	ra,8c <b1>
  84:	fff00093          	li	ra,-1
  88:	fff01073          	csrw	0xfff,zero

0000008c <b1>:
  8c:	0be00093          	li	ra,190
  90:	00315863          	bge	sp,gp,a0 <b2>
  94:	fff00113          	li	sp,-1
  98:	fff00193          	li	gp,-1
  9c:	fff01073          	csrw	0xfff,zero

000000a0 <b2>:
  a0:	0be00113          	li	sp,190
  a4:	0be00193          	li	gp,190
  a8:	00525863          	bge	tp,t0,b8 <b3>
  ac:	fff00213          	li	tp,-1
  b0:	fff00293          	li	t0,-1
  b4:	fff01073          	csrw	0xfff,zero

000000b8 <b3>:
  b8:	0be00213          	li	tp,190
  bc:	0be00293          	li	t0,190
  c0:	00735863          	bge	t1,t2,d0 <b4>
  c4:	fff00313          	li	t1,-1
  c8:	fff00393          	li	t2,-1
  cc:	fff01073          	csrw	0xfff,zero

000000d0 <b4>:
  d0:	0be00313          	li	t1,190
  d4:	0be00393          	li	t2,190
  d8:	00945863          	bge	s0,s1,e8 <b5>
  dc:	fff00413          	li	s0,-1
  e0:	fff00493          	li	s1,-1
  e4:	fff01073          	csrw	0xfff,zero

000000e8 <b5>:
  e8:	0be00413          	li	s0,190
  ec:	0be00493          	li	s1,190
  f0:	00b55863          	bge	a0,a1,100 <b6>
  f4:	fff00513          	li	a0,-1
  f8:	fff00593          	li	a1,-1
  fc:	fff01073          	csrw	0xfff,zero

00000100 <b6>:
 100:	0be00513          	li	a0,190
 104:	0be00593          	li	a1,190
 108:	00d65863          	bge	a2,a3,118 <b7>
 10c:	fff00613          	li	a2,-1
 110:	fff00693          	li	a3,-1
 114:	fff01073          	csrw	0xfff,zero

00000118 <b7>:
 118:	0be00613          	li	a2,190
 11c:	0be00693          	li	a3,190
 120:	00f75863          	bge	a4,a5,130 <b8>
 124:	fff00713          	li	a4,-1
 128:	fff00793          	li	a5,-1
 12c:	fff01073          	csrw	0xfff,zero

00000130 <b8>:
 130:	0be00713          	li	a4,190
 134:	0be00793          	li	a5,190
 138:	01185863          	bge	a6,a7,148 <b9>
 13c:	fff00813          	li	a6,-1
 140:	fff00893          	li	a7,-1
 144:	fff01073          	csrw	0xfff,zero

00000148 <b9>:
 148:	0be00813          	li	a6,190
 14c:	0be00893          	li	a7,190
 150:	01395863          	bge	s2,s3,160 <b10>
 154:	fff00913          	li	s2,-1
 158:	fff00993          	li	s3,-1
 15c:	fff01073          	csrw	0xfff,zero

00000160 <b10>:
 160:	0be00913          	li	s2,190
 164:	0be00993          	li	s3,190
 168:	075a5463          	bge	s4,s5,1d0 <test_done>
 16c:	0be00a13          	li	s4,190
 170:	0be00a93          	li	s5,190
 174:	057b5e63          	bge	s6,s7,1d0 <test_done>
 178:	0be00b13          	li	s6,190
 17c:	0be00b93          	li	s7,190
 180:	059c5863          	bge	s8,s9,1d0 <test_done>
 184:	0be00c13          	li	s8,190
 188:	0be00c93          	li	s9,190
 18c:	05bd5263          	bge	s10,s11,1d0 <test_done>
 190:	0be00d13          	li	s10,190
 194:	0be00d93          	li	s11,190
 198:	03de5c63          	bge	t3,t4,1d0 <test_done>
 19c:	0be00e13          	li	t3,190
 1a0:	0be00e93          	li	t4,190
 1a4:	03ff5663          	bge	t5,t6,1d0 <test_done>
 1a8:	0be00f13          	li	t5,190
 1ac:	0be00f93          	li	t6,190
 1b0:	00000013          	nop
 1b4:	00000013          	nop
 1b8:	00000013          	nop
 1bc:	00000013          	nop
 1c0:	00000013          	nop
 1c4:	00000013          	nop
 1c8:	00000013          	nop
 1cc:	00000013          	nop

000001d0 <test_done>:
 1d0:	fff01073          	csrw	0xfff,zero
