
build_segre/jal.o:     file format elf32-littleriscv


Disassembly of section .text:

00008000 <_start>:
    8000:	00c000ef          	jal	ra,800c <jmp_1>
    8004:	cacad0b7          	lui	ra,0xcacad
    8008:	aca08093          	addi	ra,ra,-1334 # cacacaca <user_stack_end+0xcac95cae>

0000800c <jmp_1>:
    800c:	00c0016f          	jal	sp,8018 <jmp_2>
    8010:	cacad137          	lui	sp,0xcacad
    8014:	aca10113          	addi	sp,sp,-1334 # cacacaca <user_stack_end+0xcac95cae>

00008018 <jmp_2>:
    8018:	00c001ef          	jal	gp,8024 <jmp_3>
    801c:	cacad1b7          	lui	gp,0xcacad
    8020:	aca18193          	addi	gp,gp,-1334 # cacacaca <user_stack_end+0xcac95cae>

00008024 <jmp_3>:
    8024:	00c0026f          	jal	tp,8030 <jmp_4>
    8028:	cacad237          	lui	tp,0xcacad
    802c:	aca20213          	addi	tp,tp,-1334 # cacacaca <user_stack_end+0xcac95cae>

00008030 <jmp_4>:
    8030:	00c002ef          	jal	t0,803c <jmp_5>
    8034:	cacad2b7          	lui	t0,0xcacad
    8038:	aca28293          	addi	t0,t0,-1334 # cacacaca <user_stack_end+0xcac95cae>

0000803c <jmp_5>:
    803c:	00c0036f          	jal	t1,8048 <jmp_6>
    8040:	cacad337          	lui	t1,0xcacad
    8044:	aca30313          	addi	t1,t1,-1334 # cacacaca <user_stack_end+0xcac95cae>

00008048 <jmp_6>:
    8048:	00c003ef          	jal	t2,8054 <jmp_7>
    804c:	cacad3b7          	lui	t2,0xcacad
    8050:	aca38393          	addi	t2,t2,-1334 # cacacaca <user_stack_end+0xcac95cae>

00008054 <jmp_7>:
    8054:	00c0046f          	jal	s0,8060 <jmp_8>
    8058:	cacad437          	lui	s0,0xcacad
    805c:	aca40413          	addi	s0,s0,-1334 # cacacaca <user_stack_end+0xcac95cae>

00008060 <jmp_8>:
    8060:	00c004ef          	jal	s1,806c <jmp_9>
    8064:	cacad4b7          	lui	s1,0xcacad
    8068:	aca48493          	addi	s1,s1,-1334 # cacacaca <user_stack_end+0xcac95cae>

0000806c <jmp_9>:
    806c:	00c0056f          	jal	a0,8078 <jmp_10>
    8070:	cacad537          	lui	a0,0xcacad
    8074:	aca50513          	addi	a0,a0,-1334 # cacacaca <user_stack_end+0xcac95cae>

00008078 <jmp_10>:
    8078:	00c005ef          	jal	a1,8084 <jmp_11>
    807c:	cacad5b7          	lui	a1,0xcacad
    8080:	aca58593          	addi	a1,a1,-1334 # cacacaca <user_stack_end+0xcac95cae>

00008084 <jmp_11>:
    8084:	00c0066f          	jal	a2,8090 <jmp_12>
    8088:	cacad637          	lui	a2,0xcacad
    808c:	aca60613          	addi	a2,a2,-1334 # cacacaca <user_stack_end+0xcac95cae>

00008090 <jmp_12>:
    8090:	00c006ef          	jal	a3,809c <jmp_13>
    8094:	cacad6b7          	lui	a3,0xcacad
    8098:	aca68693          	addi	a3,a3,-1334 # cacacaca <user_stack_end+0xcac95cae>

0000809c <jmp_13>:
    809c:	00c0076f          	jal	a4,80a8 <jmp_14>
    80a0:	cacad737          	lui	a4,0xcacad
    80a4:	aca70713          	addi	a4,a4,-1334 # cacacaca <user_stack_end+0xcac95cae>

000080a8 <jmp_14>:
    80a8:	00c007ef          	jal	a5,80b4 <jmp_15>
    80ac:	cacad7b7          	lui	a5,0xcacad
    80b0:	aca78793          	addi	a5,a5,-1334 # cacacaca <user_stack_end+0xcac95cae>

000080b4 <jmp_15>:
    80b4:	00c0086f          	jal	a6,80c0 <jmp_16>
    80b8:	cacad837          	lui	a6,0xcacad
    80bc:	aca80813          	addi	a6,a6,-1334 # cacacaca <user_stack_end+0xcac95cae>

000080c0 <jmp_16>:
    80c0:	00c008ef          	jal	a7,80cc <jmp_17>
    80c4:	cacad8b7          	lui	a7,0xcacad
    80c8:	aca88893          	addi	a7,a7,-1334 # cacacaca <user_stack_end+0xcac95cae>

000080cc <jmp_17>:
    80cc:	00c0096f          	jal	s2,80d8 <jmp_18>
    80d0:	cacad937          	lui	s2,0xcacad
    80d4:	aca90913          	addi	s2,s2,-1334 # cacacaca <user_stack_end+0xcac95cae>

000080d8 <jmp_18>:
    80d8:	00c009ef          	jal	s3,80e4 <jmp_19>
    80dc:	cacad9b7          	lui	s3,0xcacad
    80e0:	aca98993          	addi	s3,s3,-1334 # cacacaca <user_stack_end+0xcac95cae>

000080e4 <jmp_19>:
    80e4:	00c00a6f          	jal	s4,80f0 <jmp_20>
    80e8:	cacada37          	lui	s4,0xcacad
    80ec:	acaa0a13          	addi	s4,s4,-1334 # cacacaca <user_stack_end+0xcac95cae>

000080f0 <jmp_20>:
    80f0:	00c00aef          	jal	s5,80fc <jmp_21>
    80f4:	cacadab7          	lui	s5,0xcacad
    80f8:	acaa8a93          	addi	s5,s5,-1334 # cacacaca <user_stack_end+0xcac95cae>

000080fc <jmp_21>:
    80fc:	00c00b6f          	jal	s6,8108 <jmp_22>
    8100:	cacadb37          	lui	s6,0xcacad
    8104:	acab0b13          	addi	s6,s6,-1334 # cacacaca <user_stack_end+0xcac95cae>

00008108 <jmp_22>:
    8108:	00c00bef          	jal	s7,8114 <jmp_23>
    810c:	cacadbb7          	lui	s7,0xcacad
    8110:	acab8b93          	addi	s7,s7,-1334 # cacacaca <user_stack_end+0xcac95cae>

00008114 <jmp_23>:
    8114:	00c00c6f          	jal	s8,8120 <jmp_24>
    8118:	cacadc37          	lui	s8,0xcacad
    811c:	acac0c13          	addi	s8,s8,-1334 # cacacaca <user_stack_end+0xcac95cae>

00008120 <jmp_24>:
    8120:	00c00cef          	jal	s9,812c <jmp_25>
    8124:	cacadcb7          	lui	s9,0xcacad
    8128:	acac8c93          	addi	s9,s9,-1334 # cacacaca <user_stack_end+0xcac95cae>

0000812c <jmp_25>:
    812c:	00c00d6f          	jal	s10,8138 <jmp_26>
    8130:	cacadd37          	lui	s10,0xcacad
    8134:	acad0d13          	addi	s10,s10,-1334 # cacacaca <user_stack_end+0xcac95cae>

00008138 <jmp_26>:
    8138:	00c00def          	jal	s11,8144 <jmp_27>
    813c:	cacaddb7          	lui	s11,0xcacad
    8140:	acad8d93          	addi	s11,s11,-1334 # cacacaca <user_stack_end+0xcac95cae>

00008144 <jmp_27>:
    8144:	00c00e6f          	jal	t3,8150 <jmp_28>
    8148:	cacade37          	lui	t3,0xcacad
    814c:	acae0e13          	addi	t3,t3,-1334 # cacacaca <user_stack_end+0xcac95cae>

00008150 <jmp_28>:
    8150:	00c00eef          	jal	t4,815c <jmp_29>
    8154:	cacadeb7          	lui	t4,0xcacad
    8158:	acae8e93          	addi	t4,t4,-1334 # cacacaca <user_stack_end+0xcac95cae>

0000815c <jmp_29>:
    815c:	00c00f6f          	jal	t5,8168 <jmp_30>
    8160:	cacadf37          	lui	t5,0xcacad
    8164:	acaf0f13          	addi	t5,t5,-1334 # cacacaca <user_stack_end+0xcac95cae>

00008168 <jmp_30>:
    8168:	00c00fef          	jal	t6,8174 <jmp_31>
    816c:	cacadfb7          	lui	t6,0xcacad
    8170:	acaf8f93          	addi	t6,t6,-1334 # cacacaca <user_stack_end+0xcac95cae>

00008174 <jmp_31>:
    8174:	00000013          	nop
    8178:	00000013          	nop
    817c:	00000013          	nop
    8180:	00000013          	nop
    8184:	00000013          	nop
    8188:	00000013          	nop
    818c:	00000013          	nop
    8190:	00000013          	nop

00008194 <test_done>:
    8194:	fff01073          	csrw	0xfff,zero
