
build_segre/jaljalr.o:     file format elf32-littleriscv


Disassembly of section .text:

00008000 <_start>:
    8000:	010000ef          	jal	ra,8010 <jmp_1>
    8004:	cacad0b7          	lui	ra,0xcacad
    8008:	aca08093          	addi	ra,ra,-1334 # cacacaca <user_stack_end+0xcac95cae>
    800c:	000f0f67          	jalr	t5,t5

00008010 <jmp_1>:
    8010:	0100016f          	jal	sp,8020 <jmp_2>
    8014:	cacad137          	lui	sp,0xcacad
    8018:	aca10113          	addi	sp,sp,-1334 # cacacaca <user_stack_end+0xcac95cae>
    801c:	000e8ee7          	jalr	t4,t4

00008020 <jmp_2>:
    8020:	010001ef          	jal	gp,8030 <jmp_3>
    8024:	cacad1b7          	lui	gp,0xcacad
    8028:	aca18193          	addi	gp,gp,-1334 # cacacaca <user_stack_end+0xcac95cae>
    802c:	000e0e67          	jalr	t3,t3

00008030 <jmp_3>:
    8030:	0100026f          	jal	tp,8040 <jmp_4>
    8034:	cacad237          	lui	tp,0xcacad
    8038:	aca20213          	addi	tp,tp,-1334 # cacacaca <user_stack_end+0xcac95cae>
    803c:	000d8de7          	jalr	s11,s11

00008040 <jmp_4>:
    8040:	010002ef          	jal	t0,8050 <jmp_5>
    8044:	cacad2b7          	lui	t0,0xcacad
    8048:	aca28293          	addi	t0,t0,-1334 # cacacaca <user_stack_end+0xcac95cae>
    804c:	000d0d67          	jalr	s10,s10

00008050 <jmp_5>:
    8050:	0100036f          	jal	t1,8060 <jmp_6>
    8054:	cacad337          	lui	t1,0xcacad
    8058:	aca30313          	addi	t1,t1,-1334 # cacacaca <user_stack_end+0xcac95cae>
    805c:	000c8ce7          	jalr	s9,s9

00008060 <jmp_6>:
    8060:	010003ef          	jal	t2,8070 <jmp_7>
    8064:	cacad3b7          	lui	t2,0xcacad
    8068:	aca38393          	addi	t2,t2,-1334 # cacacaca <user_stack_end+0xcac95cae>
    806c:	000c0c67          	jalr	s8,s8

00008070 <jmp_7>:
    8070:	0100046f          	jal	s0,8080 <jmp_8>
    8074:	cacad437          	lui	s0,0xcacad
    8078:	aca40413          	addi	s0,s0,-1334 # cacacaca <user_stack_end+0xcac95cae>
    807c:	000b8be7          	jalr	s7,s7

00008080 <jmp_8>:
    8080:	010004ef          	jal	s1,8090 <jmp_9>
    8084:	cacad4b7          	lui	s1,0xcacad
    8088:	aca48493          	addi	s1,s1,-1334 # cacacaca <user_stack_end+0xcac95cae>
    808c:	000b0b67          	jalr	s6,s6

00008090 <jmp_9>:
    8090:	0100056f          	jal	a0,80a0 <jmp_10>
    8094:	cacad537          	lui	a0,0xcacad
    8098:	aca50513          	addi	a0,a0,-1334 # cacacaca <user_stack_end+0xcac95cae>
    809c:	000a8ae7          	jalr	s5,s5

000080a0 <jmp_10>:
    80a0:	010005ef          	jal	a1,80b0 <jmp_11>
    80a4:	cacad5b7          	lui	a1,0xcacad
    80a8:	aca58593          	addi	a1,a1,-1334 # cacacaca <user_stack_end+0xcac95cae>
    80ac:	000a0a67          	jalr	s4,s4

000080b0 <jmp_11>:
    80b0:	0100066f          	jal	a2,80c0 <jmp_12>
    80b4:	cacad637          	lui	a2,0xcacad
    80b8:	aca60613          	addi	a2,a2,-1334 # cacacaca <user_stack_end+0xcac95cae>
    80bc:	000989e7          	jalr	s3,s3

000080c0 <jmp_12>:
    80c0:	010006ef          	jal	a3,80d0 <jmp_13>
    80c4:	cacad6b7          	lui	a3,0xcacad
    80c8:	aca68693          	addi	a3,a3,-1334 # cacacaca <user_stack_end+0xcac95cae>
    80cc:	00090967          	jalr	s2,s2

000080d0 <jmp_13>:
    80d0:	0100076f          	jal	a4,80e0 <jmp_14>
    80d4:	cacad737          	lui	a4,0xcacad
    80d8:	aca70713          	addi	a4,a4,-1334 # cacacaca <user_stack_end+0xcac95cae>
    80dc:	000888e7          	jalr	a7,a7

000080e0 <jmp_14>:
    80e0:	010007ef          	jal	a5,80f0 <jmp_15>
    80e4:	cacad7b7          	lui	a5,0xcacad
    80e8:	aca78793          	addi	a5,a5,-1334 # cacacaca <user_stack_end+0xcac95cae>
    80ec:	00080867          	jalr	a6,a6

000080f0 <jmp_15>:
    80f0:	0100086f          	jal	a6,8100 <jmp_16>
    80f4:	cacad837          	lui	a6,0xcacad
    80f8:	aca80813          	addi	a6,a6,-1334 # cacacaca <user_stack_end+0xcac95cae>
    80fc:	0e800fef          	jal	t6,81e4 <jmp_31>

00008100 <jmp_16>:
    8100:	010008ef          	jal	a7,8110 <jmp_17>
    8104:	cacad8b7          	lui	a7,0xcacad
    8108:	aca88893          	addi	a7,a7,-1334 # cacacaca <user_stack_end+0xcac95cae>
    810c:	000787e7          	jalr	a5,a5

00008110 <jmp_17>:
    8110:	0100096f          	jal	s2,8120 <jmp_18>
    8114:	cacad937          	lui	s2,0xcacad
    8118:	aca90913          	addi	s2,s2,-1334 # cacacaca <user_stack_end+0xcac95cae>
    811c:	00070767          	jalr	a4,a4

00008120 <jmp_18>:
    8120:	010009ef          	jal	s3,8130 <jmp_19>
    8124:	cacad9b7          	lui	s3,0xcacad
    8128:	aca98993          	addi	s3,s3,-1334 # cacacaca <user_stack_end+0xcac95cae>
    812c:	000686e7          	jalr	a3,a3

00008130 <jmp_19>:
    8130:	01000a6f          	jal	s4,8140 <jmp_20>
    8134:	cacada37          	lui	s4,0xcacad
    8138:	acaa0a13          	addi	s4,s4,-1334 # cacacaca <user_stack_end+0xcac95cae>
    813c:	00060667          	jalr	a2,a2

00008140 <jmp_20>:
    8140:	01000aef          	jal	s5,8150 <jmp_21>
    8144:	cacadab7          	lui	s5,0xcacad
    8148:	acaa8a93          	addi	s5,s5,-1334 # cacacaca <user_stack_end+0xcac95cae>
    814c:	000585e7          	jalr	a1,a1

00008150 <jmp_21>:
    8150:	01000b6f          	jal	s6,8160 <jmp_22>
    8154:	cacadb37          	lui	s6,0xcacad
    8158:	acab0b13          	addi	s6,s6,-1334 # cacacaca <user_stack_end+0xcac95cae>
    815c:	00050567          	jalr	a0,a0

00008160 <jmp_22>:
    8160:	01000bef          	jal	s7,8170 <jmp_23>
    8164:	cacadbb7          	lui	s7,0xcacad
    8168:	acab8b93          	addi	s7,s7,-1334 # cacacaca <user_stack_end+0xcac95cae>
    816c:	000484e7          	jalr	s1,s1

00008170 <jmp_23>:
    8170:	01000c6f          	jal	s8,8180 <jmp_24>
    8174:	cacadc37          	lui	s8,0xcacad
    8178:	acac0c13          	addi	s8,s8,-1334 # cacacaca <user_stack_end+0xcac95cae>
    817c:	00040467          	jalr	s0,s0

00008180 <jmp_24>:
    8180:	01000cef          	jal	s9,8190 <jmp_25>
    8184:	cacadcb7          	lui	s9,0xcacad
    8188:	acac8c93          	addi	s9,s9,-1334 # cacacaca <user_stack_end+0xcac95cae>
    818c:	000383e7          	jalr	t2,t2

00008190 <jmp_25>:
    8190:	01000d6f          	jal	s10,81a0 <jmp_26>
    8194:	cacadd37          	lui	s10,0xcacad
    8198:	acad0d13          	addi	s10,s10,-1334 # cacacaca <user_stack_end+0xcac95cae>
    819c:	00030367          	jalr	t1,t1

000081a0 <jmp_26>:
    81a0:	01000def          	jal	s11,81b0 <jmp_27>
    81a4:	cacaddb7          	lui	s11,0xcacad
    81a8:	acad8d93          	addi	s11,s11,-1334 # cacacaca <user_stack_end+0xcac95cae>
    81ac:	000282e7          	jalr	t0,t0

000081b0 <jmp_27>:
    81b0:	01000e6f          	jal	t3,81c0 <jmp_28>
    81b4:	cacade37          	lui	t3,0xcacad
    81b8:	acae0e13          	addi	t3,t3,-1334 # cacacaca <user_stack_end+0xcac95cae>
    81bc:	00020267          	jalr	tp,tp # 0 <_start-0x8000>

000081c0 <jmp_28>:
    81c0:	01000eef          	jal	t4,81d0 <jmp_29>
    81c4:	cacadeb7          	lui	t4,0xcacad
    81c8:	acae8e93          	addi	t4,t4,-1334 # cacacaca <user_stack_end+0xcac95cae>
    81cc:	000181e7          	jalr	gp,gp

000081d0 <jmp_29>:
    81d0:	01000f6f          	jal	t5,81e0 <jmp_30>
    81d4:	cacadf37          	lui	t5,0xcacad
    81d8:	acaf0f13          	addi	t5,t5,-1334 # cacacaca <user_stack_end+0xcac95cae>
    81dc:	00010167          	jalr	sp,sp

000081e0 <jmp_30>:
    81e0:	000080e7          	jalr	ra

000081e4 <jmp_31>:
    81e4:	cacadfb7          	lui	t6,0xcacad
    81e8:	acaf8f93          	addi	t6,t6,-1334 # cacacaca <user_stack_end+0xcac95cae>
    81ec:	00000013          	nop
    81f0:	00000013          	nop
    81f4:	00000013          	nop
    81f8:	00000013          	nop
    81fc:	00000013          	nop
    8200:	00000013          	nop
    8204:	00000013          	nop
    8208:	00000013          	nop

0000820c <test_done>:
    820c:	fff01073          	csrw	0xfff,zero
