
build_segre/lbu.o:     file format elf32-littleriscv


Disassembly of section .text:

00008000 <_start>:
    8000:	fff00093          	li	ra,-1
    8004:	fff00113          	li	sp,-1
    8008:	fff00193          	li	gp,-1
    800c:	fff00213          	li	tp,-1
    8010:	fff00293          	li	t0,-1
    8014:	fff00313          	li	t1,-1
    8018:	fff00393          	li	t2,-1
    801c:	fff00413          	li	s0,-1
    8020:	fff00493          	li	s1,-1
    8024:	fff00513          	li	a0,-1
    8028:	fff00593          	li	a1,-1
    802c:	fff00613          	li	a2,-1
    8030:	fff00693          	li	a3,-1
    8034:	fff00713          	li	a4,-1
    8038:	fff00793          	li	a5,-1
    803c:	fff00813          	li	a6,-1
    8040:	fff00893          	li	a7,-1
    8044:	fff00913          	li	s2,-1
    8048:	fff00993          	li	s3,-1
    804c:	fff00a13          	li	s4,-1
    8050:	fff00a93          	li	s5,-1
    8054:	fff00b13          	li	s6,-1
    8058:	fff00b93          	li	s7,-1
    805c:	fff00c13          	li	s8,-1
    8060:	fff00c93          	li	s9,-1
    8064:	fff00d13          	li	s10,-1
    8068:	fff00d93          	li	s11,-1
    806c:	fff00e13          	li	t3,-1
    8070:	fff00e93          	li	t4,-1
    8074:	0000af17          	auipc	t5,0xa
    8078:	f8cf0f13          	addi	t5,t5,-116 # 12000 <user_stack_start>
    807c:	000f4003          	lbu	zero,0(t5)
    8080:	001f4083          	lbu	ra,1(t5)
    8084:	002f4103          	lbu	sp,2(t5)
    8088:	003f4183          	lbu	gp,3(t5)
    808c:	004f4203          	lbu	tp,4(t5)
    8090:	005f4283          	lbu	t0,5(t5)
    8094:	006f4303          	lbu	t1,6(t5)
    8098:	007f4383          	lbu	t2,7(t5)
    809c:	008f4403          	lbu	s0,8(t5)
    80a0:	009f4483          	lbu	s1,9(t5)
    80a4:	00af4503          	lbu	a0,10(t5)
    80a8:	00bf4583          	lbu	a1,11(t5)
    80ac:	00cf4603          	lbu	a2,12(t5)
    80b0:	00df4683          	lbu	a3,13(t5)
    80b4:	00ef4703          	lbu	a4,14(t5)
    80b8:	00ff4783          	lbu	a5,15(t5)
    80bc:	010f4803          	lbu	a6,16(t5)
    80c0:	011f4883          	lbu	a7,17(t5)
    80c4:	012f4903          	lbu	s2,18(t5)
    80c8:	013f4983          	lbu	s3,19(t5)
    80cc:	014f4a03          	lbu	s4,20(t5)
    80d0:	015f4a83          	lbu	s5,21(t5)
    80d4:	016f4b03          	lbu	s6,22(t5)
    80d8:	017f4b83          	lbu	s7,23(t5)
    80dc:	018f4c03          	lbu	s8,24(t5)
    80e0:	019f4c83          	lbu	s9,25(t5)
    80e4:	01af4d03          	lbu	s10,26(t5)
    80e8:	01bf4d83          	lbu	s11,27(t5)
    80ec:	01cf4e03          	lbu	t3,28(t5)
    80f0:	01df4e83          	lbu	t4,29(t5)
    80f4:	fff00f13          	li	t5,-1
    80f8:	fff00f93          	li	t6,-1
    80fc:	00000013          	nop
    8100:	00000013          	nop
    8104:	00000013          	nop
    8108:	00000013          	nop
    810c:	00000013          	nop
    8110:	00000013          	nop
    8114:	00000013          	nop
    8118:	00000013          	nop

0000811c <test_done>:
    811c:	fff01073          	csrw	0xfff,zero
