
build_segre/lh.o:     file format elf32-littleriscv


Disassembly of section .text:

00000000 <_start>:
   0:	fff00093          	li	ra,-1
   4:	fff00113          	li	sp,-1
   8:	fff00193          	li	gp,-1
   c:	fff00213          	li	tp,-1
  10:	fff00293          	li	t0,-1
  14:	fff00313          	li	t1,-1
  18:	fff00393          	li	t2,-1
  1c:	fff00413          	li	s0,-1
  20:	fff00493          	li	s1,-1
  24:	fff00513          	li	a0,-1
  28:	fff00593          	li	a1,-1
  2c:	fff00613          	li	a2,-1
  30:	fff00693          	li	a3,-1
  34:	fff00713          	li	a4,-1
  38:	fff00793          	li	a5,-1
  3c:	fff00813          	li	a6,-1
  40:	fff00893          	li	a7,-1
  44:	fff00913          	li	s2,-1
  48:	fff00993          	li	s3,-1
  4c:	fff00a13          	li	s4,-1
  50:	fff00a93          	li	s5,-1
  54:	fff00b13          	li	s6,-1
  58:	fff00b93          	li	s7,-1
  5c:	fff00c13          	li	s8,-1
  60:	fff00c93          	li	s9,-1
  64:	fff00d13          	li	s10,-1
  68:	fff00d93          	li	s11,-1
  6c:	fff00e13          	li	t3,-1
  70:	fff00e93          	li	t4,-1
  74:	0000af17          	auipc	t5,0xa
  78:	f8cf0f13          	addi	t5,t5,-116 # a000 <user_stack_start>
  7c:	000f1003          	lh	zero,0(t5)
  80:	002f1083          	lh	ra,2(t5)
  84:	004f1103          	lh	sp,4(t5)
  88:	006f1183          	lh	gp,6(t5)
  8c:	008f1203          	lh	tp,8(t5)
  90:	00af1283          	lh	t0,10(t5)
  94:	00cf1303          	lh	t1,12(t5)
  98:	00ef1383          	lh	t2,14(t5)
  9c:	010f1403          	lh	s0,16(t5)
  a0:	012f1483          	lh	s1,18(t5)
  a4:	014f1503          	lh	a0,20(t5)
  a8:	016f1583          	lh	a1,22(t5)
  ac:	018f1603          	lh	a2,24(t5)
  b0:	01af1683          	lh	a3,26(t5)
  b4:	01cf1703          	lh	a4,28(t5)
  b8:	01ef1783          	lh	a5,30(t5)
  bc:	020f1803          	lh	a6,32(t5)
  c0:	022f1883          	lh	a7,34(t5)
  c4:	024f1903          	lh	s2,36(t5)
  c8:	026f1983          	lh	s3,38(t5)
  cc:	028f1a03          	lh	s4,40(t5)
  d0:	02af1a83          	lh	s5,42(t5)
  d4:	02cf1b03          	lh	s6,44(t5)
  d8:	02ef1b83          	lh	s7,46(t5)
  dc:	030f1c03          	lh	s8,48(t5)
  e0:	032f1c83          	lh	s9,50(t5)
  e4:	034f1d03          	lh	s10,52(t5)
  e8:	036f1d83          	lh	s11,54(t5)
  ec:	038f1e03          	lh	t3,56(t5)
  f0:	03af1e83          	lh	t4,58(t5)
  f4:	fff00f13          	li	t5,-1
  f8:	fff00f93          	li	t6,-1
  fc:	00000013          	nop
 100:	00000013          	nop
 104:	00000013          	nop
 108:	00000013          	nop
 10c:	00000013          	nop
 110:	00000013          	nop
 114:	00000013          	nop
 118:	00000013          	nop

0000011c <test_done>:
 11c:	fff01073          	csrw	0xfff,zero
