
build_segre/or.o:     file format elf32-littleriscv


Disassembly of section .text:

00000000 <_start>:
   0:	00123037          	lui	zero,0x123
   4:	45600013          	li	zero,1110
   8:	002340b7          	lui	ra,0x234
   c:	56708093          	addi	ra,ra,1383 # 234567 <user_stack_end+0x22574b>
  10:	00345137          	lui	sp,0x345
  14:	67810113          	addi	sp,sp,1656 # 345678 <user_stack_end+0x33685c>
  18:	004561b7          	lui	gp,0x456
  1c:	79018193          	addi	gp,gp,1936 # 456790 <user_stack_end+0x447974>
  20:	00568237          	lui	tp,0x568
  24:	89a20213          	addi	tp,tp,-1894 # 56789a <user_stack_end+0x558a7e>
  28:	006792b7          	lui	t0,0x679
  2c:	9ab28293          	addi	t0,t0,-1621 # 6789ab <user_stack_end+0x669b8f>
  30:	0078a337          	lui	t1,0x78a
  34:	abc30313          	addi	t1,t1,-1348 # 789abc <user_stack_end+0x77aca0>
  38:	0089b3b7          	lui	t2,0x89b
  3c:	bcd38393          	addi	t2,t2,-1075 # 89abcd <user_stack_end+0x88bdb1>
  40:	009ac437          	lui	s0,0x9ac
  44:	cde40413          	addi	s0,s0,-802 # 9abcde <user_stack_end+0x99cec2>
  48:	00abd4b7          	lui	s1,0xabd
  4c:	def48493          	addi	s1,s1,-529 # abcdef <user_stack_end+0xaadfd3>
  50:	001ac537          	lui	a0,0x1ac
  54:	cde50513          	addi	a0,a0,-802 # 1abcde <user_stack_end+0x19cec2>
  58:	0012b5b7          	lui	a1,0x12b
  5c:	bcd58593          	addi	a1,a1,-1075 # 12abcd <user_stack_end+0x11bdb1>
  60:	00124637          	lui	a2,0x124
  64:	abc60613          	addi	a2,a2,-1348 # 123abc <user_stack_end+0x114ca0>
  68:	001236b7          	lui	a3,0x123
  6c:	4ab68693          	addi	a3,a3,1195 # 1234ab <user_stack_end+0x11468f>
  70:	00123737          	lui	a4,0x123
  74:	45a70713          	addi	a4,a4,1114 # 12345a <user_stack_end+0x11463e>
  78:	001237b7          	lui	a5,0x123
  7c:	45678793          	addi	a5,a5,1110 # 123456 <user_stack_end+0x11463a>
  80:	00123837          	lui	a6,0x123
  84:	45a80813          	addi	a6,a6,1114 # 12345a <user_stack_end+0x11463e>
  88:	001238b7          	lui	a7,0x123
  8c:	45688893          	addi	a7,a7,1110 # 123456 <user_stack_end+0x11463a>
  90:	00234937          	lui	s2,0x234
  94:	56790913          	addi	s2,s2,1383 # 234567 <user_stack_end+0x22574b>
  98:	003459b7          	lui	s3,0x345
  9c:	67898993          	addi	s3,s3,1656 # 345678 <user_stack_end+0x33685c>
  a0:	00456a37          	lui	s4,0x456
  a4:	790a0a13          	addi	s4,s4,1936 # 456790 <user_stack_end+0x447974>
  a8:	00568ab7          	lui	s5,0x568
  ac:	89aa8a93          	addi	s5,s5,-1894 # 56789a <user_stack_end+0x558a7e>
  b0:	00679b37          	lui	s6,0x679
  b4:	9abb0b13          	addi	s6,s6,-1621 # 6789ab <user_stack_end+0x669b8f>
  b8:	0078abb7          	lui	s7,0x78a
  bc:	abcb8b93          	addi	s7,s7,-1348 # 789abc <user_stack_end+0x77aca0>
  c0:	0089bc37          	lui	s8,0x89b
  c4:	bcdc0c13          	addi	s8,s8,-1075 # 89abcd <user_stack_end+0x88bdb1>
  c8:	009accb7          	lui	s9,0x9ac
  cc:	cdec8c93          	addi	s9,s9,-802 # 9abcde <user_stack_end+0x99cec2>
  d0:	00abdd37          	lui	s10,0xabd
  d4:	defd0d13          	addi	s10,s10,-529 # abcdef <user_stack_end+0xaadfd3>
  d8:	001acdb7          	lui	s11,0x1ac
  dc:	cded8d93          	addi	s11,s11,-802 # 1abcde <user_stack_end+0x19cec2>
  e0:	0012be37          	lui	t3,0x12b
  e4:	bcde0e13          	addi	t3,t3,-1075 # 12abcd <user_stack_end+0x11bdb1>
  e8:	00124eb7          	lui	t4,0x124
  ec:	abce8e93          	addi	t4,t4,-1348 # 123abc <user_stack_end+0x114ca0>
  f0:	00123f37          	lui	t5,0x123
  f4:	4abf0f13          	addi	t5,t5,1195 # 1234ab <user_stack_end+0x11468f>
  f8:	00123fb7          	lui	t6,0x123
  fc:	45af8f93          	addi	t6,t6,1114 # 12345a <user_stack_end+0x11463e>
 100:	0020e033          	or	zero,ra,sp
 104:	003160b3          	or	ra,sp,gp
 108:	0041e133          	or	sp,gp,tp
 10c:	005261b3          	or	gp,tp,t0
 110:	0062e233          	or	tp,t0,t1
 114:	007362b3          	or	t0,t1,t2
 118:	0083e333          	or	t1,t2,s0
 11c:	009463b3          	or	t2,s0,s1
 120:	00a4e433          	or	s0,s1,a0
 124:	00b564b3          	or	s1,a0,a1
 128:	00c5e533          	or	a0,a1,a2
 12c:	00d665b3          	or	a1,a2,a3
 130:	00e6e633          	or	a2,a3,a4
 134:	00f766b3          	or	a3,a4,a5
 138:	0107e733          	or	a4,a5,a6
 13c:	011867b3          	or	a5,a6,a7
 140:	0128e833          	or	a6,a7,s2
 144:	013968b3          	or	a7,s2,s3
 148:	0149e933          	or	s2,s3,s4
 14c:	015a69b3          	or	s3,s4,s5
 150:	016aea33          	or	s4,s5,s6
 154:	017b6ab3          	or	s5,s6,s7
 158:	018beb33          	or	s6,s7,s8
 15c:	019c6bb3          	or	s7,s8,s9
 160:	01acec33          	or	s8,s9,s10
 164:	01bd6cb3          	or	s9,s10,s11
 168:	01cded33          	or	s10,s11,t3
 16c:	01de6db3          	or	s11,t3,t4
 170:	01eeee33          	or	t3,t4,t5
 174:	01ff6eb3          	or	t4,t5,t6
 178:	0020ef33          	or	t5,ra,sp
 17c:	00316fb3          	or	t6,sp,gp
 180:	00000013          	nop
 184:	00000013          	nop
 188:	00000013          	nop
 18c:	00000013          	nop
 190:	00000013          	nop
 194:	00000013          	nop
 198:	00000013          	nop
 19c:	00000013          	nop

000001a0 <test_done>:
 1a0:	fff01073          	csrw	0xfff,zero
