
build_segre/sb_stress.o:     file format elf32-littleriscv


Disassembly of section .text:

00008000 <_start>:
    8000:	cacad0b7          	lui	ra,0xcacad
    8004:	aca08093          	addi	ra,ra,-1334 # cacacaca <user_stack_end+0xcac95cae>
    8008:	deadc137          	lui	sp,0xdeadc
    800c:	eef10113          	addi	sp,sp,-273 # deadbeef <user_stack_end+0xdeac50d3>
    8010:	5a5a61b7          	lui	gp,0x5a5a6
    8014:	a5a18193          	addi	gp,gp,-1446 # 5a5a5a5a <user_stack_end+0x5a58ec3e>
    8018:	cacad237          	lui	tp,0xcacad
    801c:	aca20213          	addi	tp,tp,-1334 # cacacaca <user_stack_end+0xcac95cae>
    8020:	deadc2b7          	lui	t0,0xdeadc
    8024:	eef28293          	addi	t0,t0,-273 # deadbeef <user_stack_end+0xdeac50d3>
    8028:	5a5a6337          	lui	t1,0x5a5a6
    802c:	a5a30313          	addi	t1,t1,-1446 # 5a5a5a5a <user_stack_end+0x5a58ec3e>
    8030:	cacad3b7          	lui	t2,0xcacad
    8034:	aca38393          	addi	t2,t2,-1334 # cacacaca <user_stack_end+0xcac95cae>
    8038:	deadc437          	lui	s0,0xdeadc
    803c:	eef40413          	addi	s0,s0,-273 # deadbeef <user_stack_end+0xdeac50d3>
    8040:	5a5a64b7          	lui	s1,0x5a5a6
    8044:	a5a48493          	addi	s1,s1,-1446 # 5a5a5a5a <user_stack_end+0x5a58ec3e>
    8048:	cacad537          	lui	a0,0xcacad
    804c:	aca50513          	addi	a0,a0,-1334 # cacacaca <user_stack_end+0xcac95cae>
    8050:	deadc5b7          	lui	a1,0xdeadc
    8054:	eef58593          	addi	a1,a1,-273 # deadbeef <user_stack_end+0xdeac50d3>
    8058:	5a5a6637          	lui	a2,0x5a5a6
    805c:	a5a60613          	addi	a2,a2,-1446 # 5a5a5a5a <user_stack_end+0x5a58ec3e>
    8060:	cacad6b7          	lui	a3,0xcacad
    8064:	aca68693          	addi	a3,a3,-1334 # cacacaca <user_stack_end+0xcac95cae>
    8068:	deadc737          	lui	a4,0xdeadc
    806c:	eef70713          	addi	a4,a4,-273 # deadbeef <user_stack_end+0xdeac50d3>
    8070:	5a5a67b7          	lui	a5,0x5a5a6
    8074:	a5a78793          	addi	a5,a5,-1446 # 5a5a5a5a <user_stack_end+0x5a58ec3e>
    8078:	cacad837          	lui	a6,0xcacad
    807c:	aca80813          	addi	a6,a6,-1334 # cacacaca <user_stack_end+0xcac95cae>
    8080:	cacad8b7          	lui	a7,0xcacad
    8084:	aca88893          	addi	a7,a7,-1334 # cacacaca <user_stack_end+0xcac95cae>
    8088:	deadc937          	lui	s2,0xdeadc
    808c:	eef90913          	addi	s2,s2,-273 # deadbeef <user_stack_end+0xdeac50d3>
    8090:	5a5a69b7          	lui	s3,0x5a5a6
    8094:	a5a98993          	addi	s3,s3,-1446 # 5a5a5a5a <user_stack_end+0x5a58ec3e>
    8098:	cacada37          	lui	s4,0xcacad
    809c:	acaa0a13          	addi	s4,s4,-1334 # cacacaca <user_stack_end+0xcac95cae>
    80a0:	deadcab7          	lui	s5,0xdeadc
    80a4:	eefa8a93          	addi	s5,s5,-273 # deadbeef <user_stack_end+0xdeac50d3>
    80a8:	5a5a6b37          	lui	s6,0x5a5a6
    80ac:	a5ab0b13          	addi	s6,s6,-1446 # 5a5a5a5a <user_stack_end+0x5a58ec3e>
    80b0:	cacadbb7          	lui	s7,0xcacad
    80b4:	acab8b93          	addi	s7,s7,-1334 # cacacaca <user_stack_end+0xcac95cae>
    80b8:	deadcc37          	lui	s8,0xdeadc
    80bc:	eefc0c13          	addi	s8,s8,-273 # deadbeef <user_stack_end+0xdeac50d3>
    80c0:	5a5a6cb7          	lui	s9,0x5a5a6
    80c4:	a5ac8c93          	addi	s9,s9,-1446 # 5a5a5a5a <user_stack_end+0x5a58ec3e>
    80c8:	cacadd37          	lui	s10,0xcacad
    80cc:	acad0d13          	addi	s10,s10,-1334 # cacacaca <user_stack_end+0xcac95cae>
    80d0:	deadcdb7          	lui	s11,0xdeadc
    80d4:	eefd8d93          	addi	s11,s11,-273 # deadbeef <user_stack_end+0xdeac50d3>
    80d8:	5a5a6e37          	lui	t3,0x5a5a6
    80dc:	a5ae0e13          	addi	t3,t3,-1446 # 5a5a5a5a <user_stack_end+0x5a58ec3e>
    80e0:	cacadeb7          	lui	t4,0xcacad
    80e4:	acae8e93          	addi	t4,t4,-1334 # cacacaca <user_stack_end+0xcac95cae>
    80e8:	0000af17          	auipc	t5,0xa
    80ec:	f18f0f13          	addi	t5,t5,-232 # 12000 <user_stack_start>
    80f0:	001f2223          	sw	ra,4(t5)
    80f4:	002f1223          	sh	sp,4(t5)
    80f8:	003f0223          	sb	gp,4(t5)
    80fc:	004f0823          	sb	tp,16(t5)
    8100:	005f1823          	sh	t0,16(t5)
    8104:	006f2823          	sw	t1,16(t5)
    8108:	007f1e23          	sh	t2,28(t5)
    810c:	008f2e23          	sw	s0,28(t5)
    8110:	009f0e23          	sb	s1,28(t5)
    8114:	02af1423          	sh	a0,40(t5)
    8118:	02bf0423          	sb	a1,40(t5)
    811c:	02cf0823          	sb	a2,48(t5)
    8120:	02df0823          	sb	a3,48(t5)
    8124:	02ef0823          	sb	a4,48(t5)
    8128:	02ff2e23          	sw	a5,60(t5)
    812c:	030f2e23          	sw	a6,60(t5)
    8130:	031f2e23          	sw	a7,60(t5)
    8134:	052f1423          	sh	s2,72(t5)
    8138:	053f1423          	sh	s3,72(t5)
    813c:	054f1423          	sh	s4,72(t5)
    8140:	004f2083          	lw	ra,4(t5)
    8144:	010f2203          	lw	tp,16(t5)
    8148:	01cf2383          	lw	t2,28(t5)
    814c:	028f2503          	lw	a0,40(t5)
    8150:	030f2603          	lw	a2,48(t5)
    8154:	03cf2783          	lw	a5,60(t5)
    8158:	048f2903          	lw	s2,72(t5)
    815c:	fff00f13          	li	t5,-1
    8160:	fff00f93          	li	t6,-1
    8164:	00000013          	nop
    8168:	00000013          	nop
    816c:	00000013          	nop
    8170:	00000013          	nop
    8174:	00000013          	nop
    8178:	00000013          	nop
    817c:	00000013          	nop
    8180:	00000013          	nop

00008184 <test_done>:
    8184:	fff01073          	csrw	0xfff,zero
