
build_segre/srl.o:     file format elf32-littleriscv


Disassembly of section .text:

00008000 <_start>:
    8000:	02000093          	li	ra,32
    8004:	80000137          	lui	sp,0x80000
    8008:	600001b7          	lui	gp,0x60000
    800c:	80000237          	lui	tp,0x80000
    8010:	600002b7          	lui	t0,0x60000
    8014:	80000337          	lui	t1,0x80000
    8018:	600003b7          	lui	t2,0x60000
    801c:	80000437          	lui	s0,0x80000
    8020:	600004b7          	lui	s1,0x60000
    8024:	80000537          	lui	a0,0x80000
    8028:	600005b7          	lui	a1,0x60000
    802c:	80000637          	lui	a2,0x80000
    8030:	600006b7          	lui	a3,0x60000
    8034:	80000737          	lui	a4,0x80000
    8038:	600007b7          	lui	a5,0x60000
    803c:	80000837          	lui	a6,0x80000
    8040:	600008b7          	lui	a7,0x60000
    8044:	80000937          	lui	s2,0x80000
    8048:	600009b7          	lui	s3,0x60000
    804c:	80000a37          	lui	s4,0x80000
    8050:	60000ab7          	lui	s5,0x60000
    8054:	80000b37          	lui	s6,0x80000
    8058:	60000bb7          	lui	s7,0x60000
    805c:	80000c37          	lui	s8,0x80000
    8060:	60000cb7          	lui	s9,0x60000
    8064:	80000d37          	lui	s10,0x80000
    8068:	60000db7          	lui	s11,0x60000
    806c:	80000e37          	lui	t3,0x80000
    8070:	60000eb7          	lui	t4,0x60000
    8074:	80000f37          	lui	t5,0x80000
    8078:	60000fb7          	lui	t6,0x60000
    807c:	0010d033          	srl	zero,ra,ra
    8080:	00115133          	srl	sp,sp,ra
    8084:	0011d1b3          	srl	gp,gp,ra
    8088:	00125233          	srl	tp,tp,ra
    808c:	0012d2b3          	srl	t0,t0,ra
    8090:	00135333          	srl	t1,t1,ra
    8094:	0013d3b3          	srl	t2,t2,ra
    8098:	00145433          	srl	s0,s0,ra
    809c:	0014d4b3          	srl	s1,s1,ra
    80a0:	00155533          	srl	a0,a0,ra
    80a4:	0015d5b3          	srl	a1,a1,ra
    80a8:	00165633          	srl	a2,a2,ra
    80ac:	0016d6b3          	srl	a3,a3,ra
    80b0:	00175733          	srl	a4,a4,ra
    80b4:	0017d7b3          	srl	a5,a5,ra
    80b8:	00185833          	srl	a6,a6,ra
    80bc:	0018d8b3          	srl	a7,a7,ra
    80c0:	00195933          	srl	s2,s2,ra
    80c4:	0019d9b3          	srl	s3,s3,ra
    80c8:	001a5a33          	srl	s4,s4,ra
    80cc:	001adab3          	srl	s5,s5,ra
    80d0:	001b5b33          	srl	s6,s6,ra
    80d4:	001bdbb3          	srl	s7,s7,ra
    80d8:	001c5c33          	srl	s8,s8,ra
    80dc:	001cdcb3          	srl	s9,s9,ra
    80e0:	001d5d33          	srl	s10,s10,ra
    80e4:	001dddb3          	srl	s11,s11,ra
    80e8:	001e5e33          	srl	t3,t3,ra
    80ec:	001edeb3          	srl	t4,t4,ra
    80f0:	001f5f33          	srl	t5,t5,ra
    80f4:	001fdfb3          	srl	t6,t6,ra
    80f8:	00000013          	nop
    80fc:	00000013          	nop
    8100:	00000013          	nop
    8104:	00000013          	nop
    8108:	00000013          	nop
    810c:	00000013          	nop
    8110:	00000013          	nop
    8114:	00000013          	nop

00008118 <test_done>:
    8118:	fff01073          	csrw	0xfff,zero
