
build_segre/st_ld_stress.o:     file format elf32-littleriscv


Disassembly of section .text:

00008000 <_start>:
    8000:	cacad0b7          	lui	ra,0xcacad
    8004:	aca08093          	addi	ra,ra,-1334 # cacacaca <user_stack_end+0xcac95cae>
    8008:	deadc137          	lui	sp,0xdeadc
    800c:	eef10113          	addi	sp,sp,-273 # deadbeef <user_stack_end+0xdeac50d3>
    8010:	5a5a61b7          	lui	gp,0x5a5a6
    8014:	a5a18193          	addi	gp,gp,-1446 # 5a5a5a5a <user_stack_end+0x5a58ec3e>
    8018:	cacad237          	lui	tp,0xcacad
    801c:	aca20213          	addi	tp,tp,-1334 # cacacaca <user_stack_end+0xcac95cae>
    8020:	deadc2b7          	lui	t0,0xdeadc
    8024:	eef28293          	addi	t0,t0,-273 # deadbeef <user_stack_end+0xdeac50d3>
    8028:	5a5a6337          	lui	t1,0x5a5a6
    802c:	a5a30313          	addi	t1,t1,-1446 # 5a5a5a5a <user_stack_end+0x5a58ec3e>
    8030:	cacad3b7          	lui	t2,0xcacad
    8034:	aca38393          	addi	t2,t2,-1334 # cacacaca <user_stack_end+0xcac95cae>
    8038:	deadc437          	lui	s0,0xdeadc
    803c:	eef40413          	addi	s0,s0,-273 # deadbeef <user_stack_end+0xdeac50d3>
    8040:	5a5a64b7          	lui	s1,0x5a5a6
    8044:	a5a48493          	addi	s1,s1,-1446 # 5a5a5a5a <user_stack_end+0x5a58ec3e>
    8048:	cacad537          	lui	a0,0xcacad
    804c:	aca50513          	addi	a0,a0,-1334 # cacacaca <user_stack_end+0xcac95cae>
    8050:	deadc5b7          	lui	a1,0xdeadc
    8054:	eef58593          	addi	a1,a1,-273 # deadbeef <user_stack_end+0xdeac50d3>
    8058:	5a5a6637          	lui	a2,0x5a5a6
    805c:	a5a60613          	addi	a2,a2,-1446 # 5a5a5a5a <user_stack_end+0x5a58ec3e>
    8060:	cacad6b7          	lui	a3,0xcacad
    8064:	aca68693          	addi	a3,a3,-1334 # cacacaca <user_stack_end+0xcac95cae>
    8068:	deadc737          	lui	a4,0xdeadc
    806c:	eef70713          	addi	a4,a4,-273 # deadbeef <user_stack_end+0xdeac50d3>
    8070:	5a5a67b7          	lui	a5,0x5a5a6
    8074:	a5a78793          	addi	a5,a5,-1446 # 5a5a5a5a <user_stack_end+0x5a58ec3e>
    8078:	cacad837          	lui	a6,0xcacad
    807c:	aca80813          	addi	a6,a6,-1334 # cacacaca <user_stack_end+0xcac95cae>
    8080:	cacad8b7          	lui	a7,0xcacad
    8084:	aca88893          	addi	a7,a7,-1334 # cacacaca <user_stack_end+0xcac95cae>
    8088:	deadc937          	lui	s2,0xdeadc
    808c:	eef90913          	addi	s2,s2,-273 # deadbeef <user_stack_end+0xdeac50d3>
    8090:	5a5a69b7          	lui	s3,0x5a5a6
    8094:	a5a98993          	addi	s3,s3,-1446 # 5a5a5a5a <user_stack_end+0x5a58ec3e>
    8098:	cacada37          	lui	s4,0xcacad
    809c:	acaa0a13          	addi	s4,s4,-1334 # cacacaca <user_stack_end+0xcac95cae>
    80a0:	deadcab7          	lui	s5,0xdeadc
    80a4:	eefa8a93          	addi	s5,s5,-273 # deadbeef <user_stack_end+0xdeac50d3>
    80a8:	5a5a6b37          	lui	s6,0x5a5a6
    80ac:	a5ab0b13          	addi	s6,s6,-1446 # 5a5a5a5a <user_stack_end+0x5a58ec3e>
    80b0:	cacadbb7          	lui	s7,0xcacad
    80b4:	acab8b93          	addi	s7,s7,-1334 # cacacaca <user_stack_end+0xcac95cae>
    80b8:	deadcc37          	lui	s8,0xdeadc
    80bc:	eefc0c13          	addi	s8,s8,-273 # deadbeef <user_stack_end+0xdeac50d3>
    80c0:	5a5a6cb7          	lui	s9,0x5a5a6
    80c4:	a5ac8c93          	addi	s9,s9,-1446 # 5a5a5a5a <user_stack_end+0x5a58ec3e>
    80c8:	cacadd37          	lui	s10,0xcacad
    80cc:	acad0d13          	addi	s10,s10,-1334 # cacacaca <user_stack_end+0xcac95cae>
    80d0:	deadcdb7          	lui	s11,0xdeadc
    80d4:	eefd8d93          	addi	s11,s11,-273 # deadbeef <user_stack_end+0xdeac50d3>
    80d8:	5a5a6e37          	lui	t3,0x5a5a6
    80dc:	a5ae0e13          	addi	t3,t3,-1446 # 5a5a5a5a <user_stack_end+0x5a58ec3e>
    80e0:	cacadeb7          	lui	t4,0xcacad
    80e4:	acae8e93          	addi	t4,t4,-1334 # cacacaca <user_stack_end+0xcac95cae>
    80e8:	0000af17          	auipc	t5,0xa
    80ec:	f18f0f13          	addi	t5,t5,-232 # 12000 <user_stack_start>
    80f0:	001f2223          	sw	ra,4(t5)
    80f4:	004f2083          	lw	ra,4(t5)
    80f8:	002f2423          	sw	sp,8(t5)
    80fc:	008f2103          	lw	sp,8(t5)
    8100:	003f2623          	sw	gp,12(t5)
    8104:	00cf2183          	lw	gp,12(t5)
    8108:	004f2823          	sw	tp,16(t5)
    810c:	010f2203          	lw	tp,16(t5)
    8110:	005f2a23          	sw	t0,20(t5)
    8114:	014f2283          	lw	t0,20(t5)
    8118:	006f2c23          	sw	t1,24(t5)
    811c:	018f2303          	lw	t1,24(t5)
    8120:	007f2e23          	sw	t2,28(t5)
    8124:	01cf2383          	lw	t2,28(t5)
    8128:	028f2023          	sw	s0,32(t5)
    812c:	020f2403          	lw	s0,32(t5)
    8130:	029f2223          	sw	s1,36(t5)
    8134:	024f2483          	lw	s1,36(t5)
    8138:	02af2423          	sw	a0,40(t5)
    813c:	028f2503          	lw	a0,40(t5)
    8140:	02bf2623          	sw	a1,44(t5)
    8144:	02cf2583          	lw	a1,44(t5)
    8148:	02cf2823          	sw	a2,48(t5)
    814c:	030f2603          	lw	a2,48(t5)
    8150:	02df2a23          	sw	a3,52(t5)
    8154:	034f2683          	lw	a3,52(t5)
    8158:	02ef2c23          	sw	a4,56(t5)
    815c:	038f2703          	lw	a4,56(t5)
    8160:	02ff2e23          	sw	a5,60(t5)
    8164:	03cf2783          	lw	a5,60(t5)
    8168:	050f2023          	sw	a6,64(t5)
    816c:	040f2803          	lw	a6,64(t5)
    8170:	051f2223          	sw	a7,68(t5)
    8174:	044f2883          	lw	a7,68(t5)
    8178:	052f2423          	sw	s2,72(t5)
    817c:	048f2903          	lw	s2,72(t5)
    8180:	053f2623          	sw	s3,76(t5)
    8184:	04cf2983          	lw	s3,76(t5)
    8188:	054f2823          	sw	s4,80(t5)
    818c:	050f2a03          	lw	s4,80(t5)
    8190:	055f2a23          	sw	s5,84(t5)
    8194:	054f2a83          	lw	s5,84(t5)
    8198:	056f2c23          	sw	s6,88(t5)
    819c:	058f2b03          	lw	s6,88(t5)
    81a0:	057f2e23          	sw	s7,92(t5)
    81a4:	05cf2b83          	lw	s7,92(t5)
    81a8:	078f2023          	sw	s8,96(t5)
    81ac:	060f2c03          	lw	s8,96(t5)
    81b0:	079f2223          	sw	s9,100(t5)
    81b4:	064f2c83          	lw	s9,100(t5)
    81b8:	07af2423          	sw	s10,104(t5)
    81bc:	068f2d03          	lw	s10,104(t5)
    81c0:	07bf2623          	sw	s11,108(t5)
    81c4:	06cf2d83          	lw	s11,108(t5)
    81c8:	07cf2823          	sw	t3,112(t5)
    81cc:	070f2e03          	lw	t3,112(t5)
    81d0:	07df2a23          	sw	t4,116(t5)
    81d4:	074f2e83          	lw	t4,116(t5)
    81d8:	fff00f13          	li	t5,-1
    81dc:	fff00f93          	li	t6,-1
    81e0:	00000013          	nop
    81e4:	00000013          	nop
    81e8:	00000013          	nop
    81ec:	00000013          	nop
    81f0:	00000013          	nop
    81f4:	00000013          	nop
    81f8:	00000013          	nop
    81fc:	00000013          	nop

00008200 <test_done>:
    8200:	fff01073          	csrw	0xfff,zero
